target datalayout = "e-m:e-p270:32:32-p271:32:32-p272:64:64-i64:64-i128:128-f80:128-n8:16:32:64-S128"
target triple = "x86_64-pc-linux-gnu"

%"class.absl::Span" = type { ptr, i64 }
%"class.absl::Span.0" = type { ptr, i64 }

; Function Attrs: mustprogress nounwind uwtable
define linkonce_odr dso_local noundef nonnull align 1 dereferenceable(1) ptr @_ZNK4absl4SpanIcEixEm(ptr noundef nonnull align 8 dereferenceable(16) %0, i64 noundef %1) #2 comdat align 2 {
  %3 = alloca ptr, align 8
  %4 = alloca i64, align 8
  store ptr %0, ptr %3, align 8, !tbaa !8
  store i64 %1, ptr %4, align 8, !tbaa !4
  %5 = load ptr, ptr %3, align 8
  %6 = getelementptr inbounds nuw %"class.absl::Span", ptr %5, i32 0, i32 0
  %7 = load ptr, ptr %6, align 8, !tbaa !20
  %8 = load i64, ptr %4, align 8, !tbaa !4
  %9 = getelementptr inbounds nuw i8, ptr %7, i64 %8
  ret ptr %9
}

; Function Attrs: mustprogress nounwind uwtable
define linkonce_odr dso_local void @_ZN4absl4SpanIcE13remove_prefixEm(ptr noundef nonnull align 8 dereferenceable(16) %0, i64 noundef %1) #2 comdat align 2 {
  %3 = alloca ptr, align 8
  %4 = alloca i64, align 8
  store ptr %0, ptr %3, align 8, !tbaa !8
  store i64 %1, ptr %4, align 8, !tbaa !4
  %5 = load ptr, ptr %3, align 8
  %6 = load i64, ptr %4, align 8, !tbaa !4
  %7 = getelementptr inbounds nuw %"class.absl::Span", ptr %5, i32 0, i32 0
  %8 = load ptr, ptr %7, align 8, !tbaa !20
  %9 = getelementptr inbounds nuw i8, ptr %8, i64 %6
  store ptr %9, ptr %7, align 8, !tbaa !20
  %10 = load i64, ptr %4, align 8, !tbaa !4
  %11 = getelementptr inbounds nuw %"class.absl::Span", ptr %5, i32 0, i32 1
  %12 = load i64, ptr %11, align 8, !tbaa !13
  %13 = sub i64 %12, %10
  store i64 %13, ptr %11, align 8, !tbaa !13
  ret void
}

; Function Attrs: mustprogress nounwind uwtable
define linkonce_odr dso_local noundef ptr @_ZNK4absl4SpanIKcE4dataEv(ptr noundef nonnull align 8 dereferenceable(16) %0) #2 comdat align 2 {
  %2 = alloca ptr, align 8
  store ptr %0, ptr %2, align 8, !tbaa !24
  %3 = load ptr, ptr %2, align 8
  %4 = getelementptr inbounds nuw %"class.absl::Span.0", ptr %3, i32 0, i32 0
  %5 = load ptr, ptr %4, align 8, !tbaa !28
  ret ptr %5
}

; Function Attrs: mustprogress nounwind uwtable
define linkonce_odr dso_local noundef ptr @_ZNK4absl4SpanIcE4dataEv(ptr noundef nonnull align 8 dereferenceable(16) %0) #2 comdat align 2 {
  %2 = alloca ptr, align 8
  store ptr %0, ptr %2, align 8, !tbaa !8
  %3 = load ptr, ptr %2, align 8
  %4 = getelementptr inbounds nuw %"class.absl::Span", ptr %3, i32 0, i32 0
  %5 = load ptr, ptr %4, align 8, !tbaa !20
  ret ptr %5
}

; Function Attrs: mustprogress nounwind uwtable
define internal void @_ZN4absl12log_internal12_GLOBAL__N_115EncodeRawVarintEmmPNS_4SpanIcEE(i64 noundef %0, i64 noundef %1, ptr noundef %2) #2 {
  %4 = alloca i64, align 8
  %5 = alloca i64, align 8
  %6 = alloca ptr, align 8
  %7 = alloca i64, align 8
  store i64 %0, ptr %4, align 8, !tbaa !4
  store i64 %1, ptr %5, align 8, !tbaa !4
  store ptr %2, ptr %6, align 8, !tbaa !8
  call void @llvm.lifetime.start.p0(i64 8, ptr %7) #6
  store i64 0, ptr %7, align 8, !tbaa !4
  br label %8

8:                                                ; preds = %29, %3
  %9 = load i64, ptr %7, align 8, !tbaa !4
  %10 = load i64, ptr %5, align 8, !tbaa !4
  %11 = icmp ult i64 %9, %10
  br i1 %11, label %13, label %12

12:                                               ; preds = %8
  call void @llvm.lifetime.end.p0(i64 8, ptr %7) #6
  br label %32

13:                                               ; preds = %8
  %14 = load i64, ptr %4, align 8, !tbaa !4
  %15 = and i64 %14, 127
  %16 = load i64, ptr %7, align 8, !tbaa !4
  %17 = add i64 %16, 1
  %18 = load i64, ptr %5, align 8, !tbaa !4
  %19 = icmp eq i64 %17, %18
  %20 = select i1 %19, i32 0, i32 128
  %21 = sext i32 %20 to i64
  %22 = or i64 %15, %21
  %23 = trunc i64 %22 to i8
  %24 = load ptr, ptr %6, align 8, !tbaa !8
  %25 = load i64, ptr %7, align 8, !tbaa !4
  %26 = call noundef nonnull align 1 dereferenceable(1) ptr @_ZNK4absl4SpanIcEixEm(ptr noundef nonnull align 8 dereferenceable(16) %24, i64 noundef %25) #6
  store i8 %23, ptr %26, align 1, !tbaa !16
  %27 = load i64, ptr %4, align 8, !tbaa !4
  %28 = lshr i64 %27, 7
  store i64 %28, ptr %4, align 8, !tbaa !4
  br label %29

29:                                               ; preds = %13
  %30 = load i64, ptr %7, align 8, !tbaa !4
  %31 = add i64 %30, 1
  store i64 %31, ptr %7, align 8, !tbaa !4
  br label %8, !llvm.loop !17

32:                                               ; preds = %12
  %33 = load ptr, ptr %6, align 8, !tbaa !8
  %34 = load i64, ptr %5, align 8, !tbaa !4
  call void @_ZN4absl4SpanIcE13remove_prefixEm(ptr noundef nonnull align 8 dereferenceable(16) %33, i64 noundef %34) #6
  ret void
}

; Function Attrs: mustprogress nounwind uwtable
define linkonce_odr dso_local void @_ZN4absl4SpanIcE13remove_suffixEm(ptr noundef nonnull align 8 dereferenceable(16) %0, i64 noundef %1) #2 comdat align 2 {
  %3 = alloca ptr, align 8
  %4 = alloca i64, align 8
  store ptr %0, ptr %3, align 8, !tbaa !8
  store i64 %1, ptr %4, align 8, !tbaa !4
  %5 = load ptr, ptr %3, align 8
  %6 = load i64, ptr %4, align 8, !tbaa !4
  %7 = getelementptr inbounds nuw %"class.absl::Span", ptr %5, i32 0, i32 1
  %8 = load i64, ptr %7, align 8, !tbaa !13
  %9 = sub i64 %8, %6
  store i64 %9, ptr %7, align 8, !tbaa !13
  ret void
}

; Function Attrs: mustprogress nounwind uwtable
define linkonce_odr dso_local void @_ZN4absl4SpanIKcE13remove_suffixEm(ptr noundef nonnull align 8 dereferenceable(16) %0, i64 noundef %1) #2 comdat align 2 {
  %3 = alloca ptr, align 8
  %4 = alloca i64, align 8
  store ptr %0, ptr %3, align 8, !tbaa !24
  store i64 %1, ptr %4, align 8, !tbaa !4
  %5 = load ptr, ptr %3, align 8
  %6 = load i64, ptr %4, align 8, !tbaa !4
  %7 = getelementptr inbounds nuw %"class.absl::Span.0", ptr %5, i32 0, i32 1
  %8 = load i64, ptr %7, align 8, !tbaa !26
  %9 = sub i64 %8, %6
  store i64 %9, ptr %7, align 8, !tbaa !26
  ret void
}

; Function Attrs: inlinehint mustprogress nounwind uwtable
define linkonce_odr dso_local noundef nonnull align 8 dereferenceable(8) ptr @_ZSt3minImERKT_S2_S2_(ptr noundef nonnull align 8 dereferenceable(8) %0, ptr noundef nonnull align 8 dereferenceable(8) %1) #4 comdat {
  %3 = alloca ptr, align 8
  %4 = alloca ptr, align 8
  %5 = alloca ptr, align 8
  store ptr %0, ptr %4, align 8, !tbaa !29
  store ptr %1, ptr %5, align 8, !tbaa !29
  %6 = load ptr, ptr %5, align 8, !tbaa !29
  %7 = load i64, ptr %6, align 8, !tbaa !4
  %8 = load ptr, ptr %4, align 8, !tbaa !29
  %9 = load i64, ptr %8, align 8, !tbaa !4
  %10 = icmp ult i64 %7, %9
  br i1 %10, label %11, label %13

11:                                               ; preds = %2
  %12 = load ptr, ptr %5, align 8, !tbaa !29
  store ptr %12, ptr %3, align 8
  br label %15

13:                                               ; preds = %2
  %14 = load ptr, ptr %4, align 8, !tbaa !29
  store ptr %14, ptr %3, align 8
  br label %15

15:                                               ; preds = %13, %11
  %16 = load ptr, ptr %3, align 8
  ret ptr %16
}

; Function Attrs: mustprogress nounwind uwtable
define linkonce_odr dso_local noundef i64 @_ZNK4absl4SpanIcE4sizeEv(ptr noundef nonnull align 8 dereferenceable(16) %0) #2 comdat align 2 {
  %2 = alloca ptr, align 8
  store ptr %0, ptr %2, align 8, !tbaa !8
  %3 = load ptr, ptr %2, align 8
  %4 = getelementptr inbounds nuw %"class.absl::Span", ptr %3, i32 0, i32 1
  %5 = load i64, ptr %4, align 8, !tbaa !13
  ret i64 %5
}

; Function Attrs: mustprogress nounwind uwtable
define linkonce_odr dso_local noundef i64 @_ZNK4absl4SpanIKcE4sizeEv(ptr noundef nonnull align 8 dereferenceable(16) %0) #2 comdat align 2 {
  %2 = alloca ptr, align 8
  store ptr %0, ptr %2, align 8, !tbaa !24
  %3 = load ptr, ptr %2, align 8
  %4 = getelementptr inbounds nuw %"class.absl::Span.0", ptr %3, i32 0, i32 1
  %5 = load i64, ptr %4, align 8, !tbaa !26
  ret i64 %5
}

; Function Attrs: mustprogress uwtable
define linkonce_odr dso_local noundef i64 @_ZN4absl12log_internal10VarintSizeEm(i64 noundef %0) #0 comdat {
  %2 = alloca i64, align 8
  store i64 %0, ptr %2, align 8, !tbaa !4
  %3 = load i64, ptr %2, align 8, !tbaa !4
  %4 = icmp ult i64 %3, 128
  br i1 %4, label %5, label %6

5:                                                ; preds = %1
  br label %11

6:                                                ; preds = %1
  %7 = load i64, ptr %2, align 8, !tbaa !4
  %8 = lshr i64 %7, 7
  %9 = call noundef i64 @_ZN4absl12log_internal10VarintSizeEm(i64 noundef %8)
  %10 = add i64 1, %9
  br label %11

11:                                               ; preds = %6, %5
  %12 = phi i64 [ 1, %5 ], [ %10, %6 ]
  ret i64 %12
}

; Function Attrs: mustprogress nounwind uwtable
define linkonce_odr dso_local noundef i64 @_ZN4absl12log_internal11MakeTagTypeEmNS0_8WireTypeE(i64 noundef %0, i64 noundef %1) #2 comdat {
  %3 = alloca i64, align 8
  %4 = alloca i64, align 8
  store i64 %0, ptr %3, align 8, !tbaa !4
  store i64 %1, ptr %4, align 8, !tbaa !11
  %5 = load i64, ptr %3, align 8, !tbaa !4
  %6 = shl i64 %5, 3
  %7 = load i64, ptr %4, align 8, !tbaa !11
  %8 = or i64 %6, %7
  ret i64 %8
}

; Function Attrs: mustprogress uwtable
define dso_local noundef zeroext i1 @_ZN4absl12log_internal19EncodeBytesTruncateEmNS_4SpanIKcEEPNS1_IcEE(i64 noundef %0, ptr %1, i64 %2, ptr noundef %3) #0 {
  %5 = alloca i1, align 1
  %6 = alloca %"class.absl::Span.0", align 8
  %7 = alloca i64, align 8
  %8 = alloca ptr, align 8
  %9 = alloca i64, align 8
  %10 = alloca i64, align 8
  %11 = alloca i64, align 8
  %12 = alloca i64, align 8
  %13 = alloca i64, align 8
  %14 = alloca i32, align 4
  %15 = getelementptr inbounds nuw { ptr, i64 }, ptr %6, i32 0, i32 0
  store ptr %1, ptr %15, align 8
  %16 = getelementptr inbounds nuw { ptr, i64 }, ptr %6, i32 0, i32 1
  store i64 %2, ptr %16, align 8
  store i64 %0, ptr %7, align 8, !tbaa !4
  store ptr %3, ptr %8, align 8, !tbaa !8
  call void @llvm.lifetime.start.p0(i64 8, ptr %9) #6
  %17 = load i64, ptr %7, align 8, !tbaa !4
  %18 = call noundef i64 @_ZN4absl12log_internal11MakeTagTypeEmNS0_8WireTypeE(i64 noundef %17, i64 noundef 2)
  store i64 %18, ptr %9, align 8, !tbaa !4
  call void @llvm.lifetime.start.p0(i64 8, ptr %10) #6
  %19 = load i64, ptr %9, align 8, !tbaa !4
  %20 = call noundef i64 @_ZN4absl12log_internal10VarintSizeEm(i64 noundef %19)
  store i64 %20, ptr %10, align 8, !tbaa !4
  call void @llvm.lifetime.start.p0(i64 8, ptr %11) #6
  %21 = call noundef i64 @_ZNK4absl4SpanIKcE4sizeEv(ptr noundef nonnull align 8 dereferenceable(16) %6) #6
  store i64 %21, ptr %11, align 8, !tbaa !4
  call void @llvm.lifetime.start.p0(i64 8, ptr %12) #6
  call void @llvm.lifetime.start.p0(i64 8, ptr %13) #6
  %22 = load ptr, ptr %8, align 8, !tbaa !8
  %23 = call noundef i64 @_ZNK4absl4SpanIcE4sizeEv(ptr noundef nonnull align 8 dereferenceable(16) %22) #6
  store i64 %23, ptr %13, align 8, !tbaa !4
  %24 = call noundef nonnull align 8 dereferenceable(8) ptr @_ZSt3minImERKT_S2_S2_(ptr noundef nonnull align 8 dereferenceable(8) %11, ptr noundef nonnull align 8 dereferenceable(8) %13)
  %25 = load i64, ptr %24, align 8, !tbaa !4
  %26 = call noundef i64 @_ZN4absl12log_internal10VarintSizeEm(i64 noundef %25)
  call void @llvm.lifetime.end.p0(i64 8, ptr %13) #6
  store i64 %26, ptr %12, align 8, !tbaa !4
  %27 = load i64, ptr %10, align 8, !tbaa !4
  %28 = load i64, ptr %12, align 8, !tbaa !4
  %29 = add i64 %27, %28
  %30 = load ptr, ptr %8, align 8, !tbaa !8
  %31 = call noundef i64 @_ZNK4absl4SpanIcE4sizeEv(ptr noundef nonnull align 8 dereferenceable(16) %30) #6
  %32 = icmp ule i64 %29, %31
  br i1 %32, label %33, label %52

33:                                               ; preds = %4
  %34 = load i64, ptr %10, align 8, !tbaa !4
  %35 = load i64, ptr %12, align 8, !tbaa !4
  %36 = add i64 %34, %35
  %37 = call noundef i64 @_ZNK4absl4SpanIKcE4sizeEv(ptr noundef nonnull align 8 dereferenceable(16) %6) #6
  %38 = add i64 %36, %37
  %39 = load ptr, ptr %8, align 8, !tbaa !8
  %40 = call noundef i64 @_ZNK4absl4SpanIcE4sizeEv(ptr noundef nonnull align 8 dereferenceable(16) %39) #6
  %41 = icmp ugt i64 %38, %40
  br i1 %41, label %42, label %52

42:                                               ; preds = %33
  %43 = load i64, ptr %10, align 8, !tbaa !4
  %44 = load i64, ptr %12, align 8, !tbaa !4
  %45 = add i64 %43, %44
  %46 = call noundef i64 @_ZNK4absl4SpanIKcE4sizeEv(ptr noundef nonnull align 8 dereferenceable(16) %6) #6
  %47 = add i64 %45, %46
  %48 = load ptr, ptr %8, align 8, !tbaa !8
  %49 = call noundef i64 @_ZNK4absl4SpanIcE4sizeEv(ptr noundef nonnull align 8 dereferenceable(16) %48) #6
  %50 = sub i64 %47, %49
  call void @_ZN4absl4SpanIKcE13remove_suffixEm(ptr noundef nonnull align 8 dereferenceable(16) %6, i64 noundef %50) #6
  %51 = call noundef i64 @_ZNK4absl4SpanIKcE4sizeEv(ptr noundef nonnull align 8 dereferenceable(16) %6) #6
  store i64 %51, ptr %11, align 8, !tbaa !4
  br label %52

52:                                               ; preds = %42, %33, %4
  %53 = load i64, ptr %10, align 8, !tbaa !4
  %54 = load i64, ptr %12, align 8, !tbaa !4
  %55 = add i64 %53, %54
  %56 = call noundef i64 @_ZNK4absl4SpanIKcE4sizeEv(ptr noundef nonnull align 8 dereferenceable(16) %6) #6
  %57 = add i64 %55, %56
  %58 = load ptr, ptr %8, align 8, !tbaa !8
  %59 = call noundef i64 @_ZNK4absl4SpanIcE4sizeEv(ptr noundef nonnull align 8 dereferenceable(16) %58) #6
  %60 = icmp ugt i64 %57, %59
  br i1 %60, label %61, label %65

61:                                               ; preds = %52
  %62 = load ptr, ptr %8, align 8, !tbaa !8
  %63 = load ptr, ptr %8, align 8, !tbaa !8
  %64 = call noundef i64 @_ZNK4absl4SpanIcE4sizeEv(ptr noundef nonnull align 8 dereferenceable(16) %63) #6
  call void @_ZN4absl4SpanIcE13remove_suffixEm(ptr noundef nonnull align 8 dereferenceable(16) %62, i64 noundef %64) #6
  store i1 false, ptr %5, align 1
  store i32 1, ptr %14, align 4
  br label %78

65:                                               ; preds = %52
  %66 = load i64, ptr %9, align 8, !tbaa !4
  %67 = load i64, ptr %10, align 8, !tbaa !4
  %68 = load ptr, ptr %8, align 8, !tbaa !8
  call void @_ZN4absl12log_internal12_GLOBAL__N_115EncodeRawVarintEmmPNS_4SpanIcEE(i64 noundef %66, i64 noundef %67, ptr noundef %68)
  %69 = load i64, ptr %11, align 8, !tbaa !4
  %70 = load i64, ptr %12, align 8, !tbaa !4
  %71 = load ptr, ptr %8, align 8, !tbaa !8
  call void @_ZN4absl12log_internal12_GLOBAL__N_115EncodeRawVarintEmmPNS_4SpanIcEE(i64 noundef %69, i64 noundef %70, ptr noundef %71)
  %72 = load ptr, ptr %8, align 8, !tbaa !8
  %73 = call noundef ptr @_ZNK4absl4SpanIcE4dataEv(ptr noundef nonnull align 8 dereferenceable(16) %72) #6
  %74 = call noundef ptr @_ZNK4absl4SpanIKcE4dataEv(ptr noundef nonnull align 8 dereferenceable(16) %6) #6
  %75 = call noundef i64 @_ZNK4absl4SpanIKcE4sizeEv(ptr noundef nonnull align 8 dereferenceable(16) %6) #6
  call void @llvm.memcpy.p0.p0.i64(ptr align 1 %73, ptr align 1 %74, i64 %75, i1 false)
  %76 = load ptr, ptr %8, align 8, !tbaa !8
  %77 = call noundef i64 @_ZNK4absl4SpanIKcE4sizeEv(ptr noundef nonnull align 8 dereferenceable(16) %6) #6
  call void @_ZN4absl4SpanIcE13remove_prefixEm(ptr noundef nonnull align 8 dereferenceable(16) %76, i64 noundef %77) #6
  store i1 true, ptr %5, align 1
  store i32 1, ptr %14, align 4
  br label %78

78:                                               ; preds = %65, %61
  call void @llvm.lifetime.end.p0(i64 8, ptr %12) #6
  call void @llvm.lifetime.end.p0(i64 8, ptr %11) #6
  call void @llvm.lifetime.end.p0(i64 8, ptr %10) #6
  call void @llvm.lifetime.end.p0(i64 8, ptr %9) #6
  %79 = load i1, ptr %5, align 1
  ret i1 %79
}