; Function Attrs: mustprogress nofree norecurse nosync nounwind memory(readwrite, inaccessiblemem: none) uwtable
define dso_local noundef zeroext i1 @_ZN4absl12log_internal19EncodeBytesTruncateEmNS_4SpanIKcEEPNS1_IcEE(i64 noundef %0, ptr readonly captures(none) %1, i64 %2, ptr noundef captures(none) %3) local_unnamed_addr #1 {
  %5 = shl i64 %0, 3
  %6 = or disjoint i64 %5, 2
  %7 = icmp ult i64 %5, 128
  br i1 %7, label %_ZN4absl12log_internal10VarintSizeEm.exit, label %tailrecurse.i

tailrecurse.i:                                    ; preds = %4, %tailrecurse.i
  %.tr3.i = phi i64 [ %8, %tailrecurse.i ], [ %6, %4 ]
  %accumulator.tr2.i = phi i64 [ %9, %tailrecurse.i ], [ 0, %4 ]
  %8 = lshr i64 %.tr3.i, 7
  %9 = add nuw nsw i64 %accumulator.tr2.i, 1
  %10 = icmp ult i64 %.tr3.i, 16384
  br i1 %10, label %tailrecurse._crit_edge.loopexit.i, label %tailrecurse.i

tailrecurse._crit_edge.loopexit.i:                ; preds = %tailrecurse.i
  %11 = add nuw i64 %accumulator.tr2.i, 2
  br label %_ZN4absl12log_internal10VarintSizeEm.exit

_ZN4absl12log_internal10VarintSizeEm.exit:        ; preds = %4, %tailrecurse._crit_edge.loopexit.i
  %accumulator.tr.lcssa.i = phi i64 [ 1, %4 ], [ %11, %tailrecurse._crit_edge.loopexit.i ]
  %12 = getelementptr inbounds nuw i8, ptr %3, i64 8
  %13 = load i64, ptr %12, align 8, !tbaa !4
  %.sroa.speculated = tail call i64 @llvm.umin.i64(i64 %13, i64 %2)
  %14 = icmp ult i64 %.sroa.speculated, 128
  br i1 %14, label %_ZN4absl12log_internal10VarintSizeEm.exit30, label %tailrecurse.i25

tailrecurse.i25:                                  ; preds = %_ZN4absl12log_internal10VarintSizeEm.exit, %tailrecurse.i25
  %.tr3.i26 = phi i64 [ %15, %tailrecurse.i25 ], [ %.sroa.speculated, %_ZN4absl12log_internal10VarintSizeEm.exit ]
  %accumulator.tr2.i27 = phi i64 [ %16, %tailrecurse.i25 ], [ 0, %_ZN4absl12log_internal10VarintSizeEm.exit ]
  %15 = lshr i64 %.tr3.i26, 7
  %16 = add nuw nsw i64 %accumulator.tr2.i27, 1
  %17 = icmp ult i64 %.tr3.i26, 16384
  br i1 %17, label %tailrecurse._crit_edge.loopexit.i28, label %tailrecurse.i25

tailrecurse._crit_edge.loopexit.i28:              ; preds = %tailrecurse.i25
  %18 = add nuw i64 %accumulator.tr2.i27, 2
  br label %_ZN4absl12log_internal10VarintSizeEm.exit30

_ZN4absl12log_internal10VarintSizeEm.exit30:      ; preds = %_ZN4absl12log_internal10VarintSizeEm.exit, %tailrecurse._crit_edge.loopexit.i28
  %accumulator.tr.lcssa.i29 = phi i64 [ 1, %_ZN4absl12log_internal10VarintSizeEm.exit ], [ %18, %tailrecurse._crit_edge.loopexit.i28 ]
  %19 = add i64 %accumulator.tr.lcssa.i29, %accumulator.tr.lcssa.i
  %.not = icmp ule i64 %19, %13
  %20 = add i64 %19, %2
  %21 = icmp ugt i64 %20, %13
  %or.cond = select i1 %.not, i1 %21, i1 false
  %22 = sub i64 %13, %19
  %.0 = select i1 %or.cond, i64 %22, i64 %2
  %23 = add i64 %.0, %19
  %24 = icmp ule i64 %23, %13
  br i1 %24, label %.lr.ph.i, label %55

.lr.ph.i:                                         ; preds = %_ZN4absl12log_internal10VarintSizeEm.exit30, %.lr.ph.i
  %.013.i = phi i64 [ %26, %.lr.ph.i ], [ 0, %_ZN4absl12log_internal10VarintSizeEm.exit30 ]
  %.01012.i = phi i64 [ %33, %.lr.ph.i ], [ %6, %_ZN4absl12log_internal10VarintSizeEm.exit30 ]
  %25 = and i64 %.01012.i, 127
  %26 = add nuw nsw i64 %.013.i, 1
  %27 = icmp eq i64 %26, %accumulator.tr.lcssa.i
  %28 = select i1 %27, i64 0, i64 128
  %29 = or disjoint i64 %28, %25
  %30 = trunc nuw i64 %29 to i8
  %31 = load ptr, ptr %3, align 8, !tbaa !11
  %32 = getelementptr inbounds nuw i8, ptr %31, i64 %.013.i
  store i8 %30, ptr %32, align 1, !tbaa !12
  %33 = lshr i64 %.01012.i, 7
  br i1 %27, label %_ZN4absl12log_internal12_GLOBAL__N_115EncodeRawVarintEmmPNS_4SpanIcEE.exit, label %.lr.ph.i, !llvm.loop !13

_ZN4absl12log_internal12_GLOBAL__N_115EncodeRawVarintEmmPNS_4SpanIcEE.exit: ; preds = %.lr.ph.i
  %34 = load ptr, ptr %3, align 8, !tbaa !11
  %35 = getelementptr inbounds nuw i8, ptr %34, i64 %accumulator.tr.lcssa.i
  store ptr %35, ptr %3, align 8, !tbaa !11
  %36 = load i64, ptr %12, align 8, !tbaa !4
  %37 = sub i64 %36, %accumulator.tr.lcssa.i
  store i64 %37, ptr %12, align 8, !tbaa !4
  br label %.lr.ph.i31

.lr.ph.i31:                                       ; preds = %_ZN4absl12log_internal12_GLOBAL__N_115EncodeRawVarintEmmPNS_4SpanIcEE.exit, %.lr.ph.i31
  %.013.i32 = phi i64 [ %39, %.lr.ph.i31 ], [ 0, %_ZN4absl12log_internal12_GLOBAL__N_115EncodeRawVarintEmmPNS_4SpanIcEE.exit ]
  %.01012.i33 = phi i64 [ %46, %.lr.ph.i31 ], [ %.0, %_ZN4absl12log_internal12_GLOBAL__N_115EncodeRawVarintEmmPNS_4SpanIcEE.exit ]
  %38 = and i64 %.01012.i33, 127
  %39 = add nuw nsw i64 %.013.i32, 1
  %40 = icmp eq i64 %39, %accumulator.tr.lcssa.i29
  %41 = select i1 %40, i64 0, i64 128
  %42 = or disjoint i64 %41, %38
  %43 = trunc nuw i64 %42 to i8
  %44 = load ptr, ptr %3, align 8, !tbaa !11
  %45 = getelementptr inbounds nuw i8, ptr %44, i64 %.013.i32
  store i8 %43, ptr %45, align 1, !tbaa !12
  %46 = lshr i64 %.01012.i33, 7
  br i1 %40, label %_ZN4absl12log_internal12_GLOBAL__N_115EncodeRawVarintEmmPNS_4SpanIcEE.exit35, label %.lr.ph.i31, !llvm.loop !13

_ZN4absl12log_internal12_GLOBAL__N_115EncodeRawVarintEmmPNS_4SpanIcEE.exit35: ; preds = %.lr.ph.i31
  %47 = load ptr, ptr %3, align 8, !tbaa !11
  %48 = getelementptr inbounds nuw i8, ptr %47, i64 %accumulator.tr.lcssa.i29
  store ptr %48, ptr %3, align 8, !tbaa !11
  %49 = load i64, ptr %12, align 8, !tbaa !4
  %50 = sub i64 %49, %accumulator.tr.lcssa.i29
  store i64 %50, ptr %12, align 8, !tbaa !4
  tail call void @llvm.memcpy.p0.p0.i64(ptr nonnull align 1 %48, ptr align 1 %1, i64 %.0, i1 false)
  %51 = load ptr, ptr %3, align 8, !tbaa !11
  %52 = getelementptr inbounds nuw i8, ptr %51, i64 %.0
  store ptr %52, ptr %3, align 8, !tbaa !11
  %53 = load i64, ptr %12, align 8, !tbaa !4
  %54 = sub i64 %53, %.0
  br label %55

55:                                               ; preds = %_ZN4absl12log_internal10VarintSizeEm.exit30, %_ZN4absl12log_internal12_GLOBAL__N_115EncodeRawVarintEmmPNS_4SpanIcEE.exit35
  %storemerge = phi i64 [ %54, %_ZN4absl12log_internal12_GLOBAL__N_115EncodeRawVarintEmmPNS_4SpanIcEE.exit35 ], [ 0, %_ZN4absl12log_internal10VarintSizeEm.exit30 ]
  store i64 %storemerge, ptr %12, align 8, !tbaa !4
  ret i1 %24
}